; Function Attrs: mustprogress nounwind uwtable
define noundef nonnull align 8 dereferenceable(88) ptr @_ZN3net15SpdyHeaderBlockaSEOS0_(ptr noundef nonnull returned align 8 dereferenceable(88) %0, ptr noundef nonnull align 8 dereferenceable(88) %1) local_unnamed_addr #3 align 2 {
  tail call void @_ZN15linked_hash_mapIN4base16BasicStringPieceINSt7__cxx1112basic_stringIcSt11char_traitsIcESaIcEEEEES8_NS0_15StringPieceHashEE4swapERSA_(ptr noundef nonnull align 8 dereferenceable(80) %0, ptr noundef nonnull align 8 dereferenceable(80) %1)
  %3 = getelementptr inbounds nuw i8, ptr %0, i64 80
  %4 = getelementptr inbounds nuw i8, ptr %1, i64 80
  %5 = load ptr, ptr %3, align 8, !tbaa !56
  %6 = load ptr, ptr %4, align 8, !tbaa !56
  store ptr %6, ptr %3, align 8, !tbaa !56
  store ptr %5, ptr %4, align 8, !tbaa !56
  ret ptr %0
}